target datalayout = "e-m:e-p270:32:32-p271:32:32-p272:64:64-i64:64-i128:128-f80:128-n8:16:32:64-S128"
target triple = "x86_64-pc-linux-gnu"

%struct.ossl_param_st = type { ptr, i32, ptr, i64, i64 }

@.str.53 = private unnamed_addr constant [31 x i8] c"../openssl/test/evp_kdf_test.c\00", align 1
@.str.67 = private unnamed_addr constant [2 x i8] c"0\00", align 1
@.str.175 = private unnamed_addr constant [48 x i8] c"kctx = get_kdfbyname(OSSL_KDF_NAME_HMACDRBGKDF)\00", align 1
@.str.176 = private unnamed_addr constant [14 x i8] c"HMAC-DRBG-KDF\00", align 1
@.str.182 = private unnamed_addr constant [37 x i8] c"EVP_KDF_CTX_get_params(kctx, params)\00", align 1
@.str.189 = private unnamed_addr constant [51 x i8] c"gettableparams = EVP_KDF_CTX_gettable_params(kctx)\00", align 1

; Function Attrs: nounwind uwtable
define internal ptr @get_kdfbyname_libctx(ptr noundef %0, ptr noundef %1) #0 {
  %3 = alloca ptr, align 8
  %4 = alloca ptr, align 8
  %5 = alloca ptr, align 8
  %6 = alloca ptr, align 8
  store ptr %0, ptr %3, align 8, !tbaa !11
  store ptr %1, ptr %4, align 8, !tbaa !18
  call void @llvm.lifetime.start.p0(i64 8, ptr %5) #6
  %7 = load ptr, ptr %3, align 8, !tbaa !11
  %8 = load ptr, ptr %4, align 8, !tbaa !18
  %9 = call ptr @EVP_KDF_fetch(ptr noundef %7, ptr noundef %8, ptr noundef null)
  store ptr %9, ptr %5, align 8, !tbaa !26
  call void @llvm.lifetime.start.p0(i64 8, ptr %6) #6
  %10 = load ptr, ptr %5, align 8, !tbaa !26
  %11 = call ptr @EVP_KDF_CTX_new(ptr noundef %10)
  store ptr %11, ptr %6, align 8, !tbaa !8
  %12 = load ptr, ptr %5, align 8, !tbaa !26
  call void @EVP_KDF_free(ptr noundef %12)
  %13 = load ptr, ptr %6, align 8, !tbaa !8
  call void @llvm.lifetime.end.p0(i64 8, ptr %6) #6
  call void @llvm.lifetime.end.p0(i64 8, ptr %5) #6
  ret ptr %13
}

; Function Attrs: nounwind uwtable
define internal ptr @get_kdfbyname(ptr noundef %0) #0 {
  %2 = alloca ptr, align 8
  store ptr %0, ptr %2, align 8, !tbaa !18
  %3 = load ptr, ptr %2, align 8, !tbaa !18
  %4 = call ptr @get_kdfbyname_libctx(ptr noundef null, ptr noundef %3)
  ret ptr %4
}

; Function Attrs: nounwind uwtable
define internal i32 @test_kdf_hmac_drbg_gettables() #0 {
  %1 = alloca i32, align 4
  %2 = alloca i32, align 4
  %3 = alloca i32, align 4
  %4 = alloca ptr, align 8
  %5 = alloca ptr, align 8
  %6 = alloca [3 x %struct.ossl_param_st], align 16
  %7 = alloca [64 x i8], align 16
  %8 = alloca %struct.ossl_param_st, align 8
  %9 = alloca %struct.ossl_param_st, align 8
  %10 = alloca %struct.ossl_param_st, align 8
  call void @llvm.lifetime.start.p0(i64 4, ptr %1) #6
  store i32 0, ptr %1, align 4, !tbaa !4
  call void @llvm.lifetime.start.p0(i64 4, ptr %2) #6
  call void @llvm.lifetime.start.p0(i64 4, ptr %3) #6
  store i32 0, ptr %3, align 4, !tbaa !4
  call void @llvm.lifetime.start.p0(i64 8, ptr %4) #6
  store ptr null, ptr %4, align 8, !tbaa !8
  call void @llvm.lifetime.start.p0(i64 8, ptr %5) #6
  call void @llvm.lifetime.start.p0(i64 120, ptr %6) #6
  call void @llvm.lifetime.start.p0(i64 64, ptr %7) #6
  %11 = call ptr @get_kdfbyname(ptr noundef @.str.176)
  store ptr %11, ptr %4, align 8, !tbaa !8
  %12 = call i32 @test_ptr(ptr noundef @.str.53, i32 noundef 1952, ptr noundef @.str.175, ptr noundef %11)
  %13 = icmp ne i32 %12, 0
  br i1 %13, label %14, label %19

14:                                               ; preds = %0
  %15 = load ptr, ptr %4, align 8, !tbaa !8
  %16 = call ptr @EVP_KDF_CTX_gettable_params(ptr noundef %15)
  store ptr %16, ptr %5, align 8, !tbaa !13
  %17 = call i32 @test_ptr(ptr noundef @.str.53, i32 noundef 1953, ptr noundef @.str.189, ptr noundef %16)
  %18 = icmp ne i32 %17, 0
  br i1 %18, label %20, label %19

19:                                               ; preds = %14, %0
  br label %77

20:                                               ; preds = %14
  %21 = getelementptr inbounds [3 x %struct.ossl_param_st], ptr %6, i64 0, i64 1
  call void @llvm.lifetime.start.p0(i64 40, ptr %8) #6
  call void @OSSL_PARAM_construct_end(ptr dead_on_unwind writable sret(%struct.ossl_param_st) align 8 %8)
  call void @llvm.memcpy.p0.p0.i64(ptr align 8 %21, ptr align 8 %8, i64 40, i1 false), !tbaa.struct !17
  call void @llvm.lifetime.end.p0(i64 40, ptr %8) #6
  store i32 0, ptr %2, align 4, !tbaa !4
  br label %22

22:                                               ; preds = %45, %20
  %23 = load ptr, ptr %5, align 8, !tbaa !13
  %24 = load i32, ptr %2, align 4, !tbaa !4
  %25 = sext i32 %24 to i64
  %26 = getelementptr inbounds %struct.ossl_param_st, ptr %23, i64 %25
  %27 = getelementptr inbounds nuw %struct.ossl_param_st, ptr %26, i32 0, i32 0
  %28 = load ptr, ptr %27, align 8, !tbaa !34
  %29 = icmp ne ptr %28, null
  br i1 %29, label %30, label %48

30:                                               ; preds = %22
  %31 = getelementptr inbounds [3 x %struct.ossl_param_st], ptr %6, i64 0, i64 0
  call void @llvm.lifetime.start.p0(i64 40, ptr %9) #6
  %32 = load ptr, ptr %5, align 8, !tbaa !13
  %33 = load i32, ptr %2, align 4, !tbaa !4
  %34 = sext i32 %33 to i64
  %35 = getelementptr inbounds %struct.ossl_param_st, ptr %32, i64 %34
  %36 = getelementptr inbounds nuw %struct.ossl_param_st, ptr %35, i32 0, i32 0
  %37 = load ptr, ptr %36, align 8, !tbaa !34
  call void @OSSL_PARAM_construct_int(ptr dead_on_unwind writable sret(%struct.ossl_param_st) align 8 %9, ptr noundef %37, ptr noundef %3)
  call void @llvm.memcpy.p0.p0.i64(ptr align 16 %31, ptr align 8 %9, i64 40, i1 false), !tbaa.struct !17
  call void @llvm.lifetime.end.p0(i64 40, ptr %9) #6
  %38 = load ptr, ptr %4, align 8, !tbaa !8
  %39 = getelementptr inbounds [3 x %struct.ossl_param_st], ptr %6, i64 0, i64 0
  %40 = call i32 @EVP_KDF_CTX_get_params(ptr noundef %38, ptr noundef %39)
  %41 = call i32 @test_int_le(ptr noundef @.str.53, i32 noundef 1959, ptr noundef @.str.182, ptr noundef @.str.67, i32 noundef %40, i32 noundef 0)
  %42 = icmp ne i32 %41, 0
  br i1 %42, label %44, label %43

43:                                               ; preds = %30
  br label %77

44:                                               ; preds = %30
  br label %45

45:                                               ; preds = %44
  %46 = load i32, ptr %2, align 4, !tbaa !4
  %47 = add nsw i32 %46, 1
  store i32 %47, ptr %2, align 4, !tbaa !4
  br label %22, !llvm.loop !38

48:                                               ; preds = %22
  store i32 0, ptr %2, align 4, !tbaa !4
  br label %49

49:                                               ; preds = %73, %48
  %50 = load ptr, ptr %5, align 8, !tbaa !13
  %51 = load i32, ptr %2, align 4, !tbaa !4
  %52 = sext i32 %51 to i64
  %53 = getelementptr inbounds %struct.ossl_param_st, ptr %50, i64 %52
  %54 = getelementptr inbounds nuw %struct.ossl_param_st, ptr %53, i32 0, i32 0
  %55 = load ptr, ptr %54, align 8, !tbaa !34
  %56 = icmp ne ptr %55, null
  br i1 %56, label %57, label %76

57:                                               ; preds = %49
  %58 = getelementptr inbounds [3 x %struct.ossl_param_st], ptr %6, i64 0, i64 0
  call void @llvm.lifetime.start.p0(i64 40, ptr %10) #6
  %59 = load ptr, ptr %5, align 8, !tbaa !13
  %60 = load i32, ptr %2, align 4, !tbaa !4
  %61 = sext i32 %60 to i64
  %62 = getelementptr inbounds %struct.ossl_param_st, ptr %59, i64 %61
  %63 = getelementptr inbounds nuw %struct.ossl_param_st, ptr %62, i32 0, i32 0
  %64 = load ptr, ptr %63, align 8, !tbaa !34
  %65 = getelementptr inbounds [64 x i8], ptr %7, i64 0, i64 0
  call void @OSSL_PARAM_construct_utf8_string(ptr dead_on_unwind writable sret(%struct.ossl_param_st) align 8 %10, ptr noundef %64, ptr noundef %65, i64 noundef 64)
  call void @llvm.memcpy.p0.p0.i64(ptr align 16 %58, ptr align 8 %10, i64 40, i1 false), !tbaa.struct !17
  call void @llvm.lifetime.end.p0(i64 40, ptr %10) #6
  %66 = load ptr, ptr %4, align 8, !tbaa !8
  %67 = getelementptr inbounds [3 x %struct.ossl_param_st], ptr %6, i64 0, i64 0
  %68 = call i32 @EVP_KDF_CTX_get_params(ptr noundef %66, ptr noundef %67)
  %69 = call i32 @test_int_le(ptr noundef @.str.53, i32 noundef 1966, ptr noundef @.str.182, ptr noundef @.str.67, i32 noundef %68, i32 noundef 0)
  %70 = icmp ne i32 %69, 0
  br i1 %70, label %72, label %71

71:                                               ; preds = %57
  br label %77

72:                                               ; preds = %57
  br label %73

73:                                               ; preds = %72
  %74 = load i32, ptr %2, align 4, !tbaa !4
  %75 = add nsw i32 %74, 1
  store i32 %75, ptr %2, align 4, !tbaa !4
  br label %49, !llvm.loop !39

76:                                               ; preds = %49
  store i32 1, ptr %1, align 4, !tbaa !4
  br label %77

77:                                               ; preds = %76, %71, %43, %19
  %78 = load ptr, ptr %4, align 8, !tbaa !8
  call void @EVP_KDF_CTX_free(ptr noundef %78)
  %79 = load i32, ptr %1, align 4, !tbaa !4
  call void @llvm.lifetime.end.p0(i64 64, ptr %7) #6
  call void @llvm.lifetime.end.p0(i64 120, ptr %6) #6
  call void @llvm.lifetime.end.p0(i64 8, ptr %5) #6
  call void @llvm.lifetime.end.p0(i64 8, ptr %4) #6
  call void @llvm.lifetime.end.p0(i64 4, ptr %3) #6
  call void @llvm.lifetime.end.p0(i64 4, ptr %2) #6
  call void @llvm.lifetime.end.p0(i64 4, ptr %1) #6
  ret i32 %79
}