; Function Attrs: nounwind uwtable
define internal range(i32 0, 2) i32 @test_kdf_hmac_drbg_gettables() #0 {
  %1 = alloca i32, align 4
  %2 = alloca [3 x %struct.ossl_param_st], align 16
  %3 = alloca [64 x i8], align 16
  %4 = alloca %struct.ossl_param_st, align 8
  %5 = alloca %struct.ossl_param_st, align 8
  call void @llvm.lifetime.start.p0(i64 4, ptr nonnull %1) #6
  store i32 0, ptr %1, align 4, !tbaa !4
  call void @llvm.lifetime.start.p0(i64 120, ptr nonnull %2) #6
  call void @llvm.lifetime.start.p0(i64 64, ptr nonnull %3) #6
  %6 = tail call ptr @EVP_KDF_fetch(ptr noundef null, ptr noundef nonnull @.str.176, ptr noundef null) #6
  %7 = tail call ptr @EVP_KDF_CTX_new(ptr noundef %6) #6
  tail call void @EVP_KDF_free(ptr noundef %6) #6
  %8 = tail call i32 @test_ptr(ptr noundef nonnull @.str.53, i32 noundef 1952, ptr noundef nonnull @.str.175, ptr noundef %7) #6
  %.not = icmp eq i32 %8, 0
  br i1 %.not, label %.loopexit, label %9

9:                                                ; preds = %0
  %10 = tail call ptr @EVP_KDF_CTX_gettable_params(ptr noundef %7) #6
  %11 = tail call i32 @test_ptr(ptr noundef nonnull @.str.53, i32 noundef 1953, ptr noundef nonnull @.str.189, ptr noundef %10) #6
  %.not15 = icmp eq i32 %11, 0
  br i1 %.not15, label %.loopexit, label %12

12:                                               ; preds = %9
  %13 = getelementptr inbounds nuw i8, ptr %2, i64 40
  call void @OSSL_PARAM_construct_end(ptr dead_on_unwind nonnull writable sret(%struct.ossl_param_st) align 8 %13) #6
  %14 = load ptr, ptr %10, align 8, !tbaa !20
  %.not1621 = icmp eq ptr %14, null
  br i1 %.not1621, label %.loopexit, label %.lr.ph

15:                                               ; preds = %.lr.ph
  %indvars.iv.next = add nuw nsw i64 %indvars.iv, 1
  %16 = getelementptr inbounds nuw %struct.ossl_param_st, ptr %10, i64 %indvars.iv.next
  %17 = load ptr, ptr %16, align 8, !tbaa !20
  %.not16 = icmp eq ptr %17, null
  br i1 %.not16, label %.preheader, label %.lr.ph, !llvm.loop !24

.preheader:                                       ; preds = %15
  %.pre = load ptr, ptr %10, align 8, !tbaa !20
  %.not1723 = icmp eq ptr %.pre, null
  br i1 %.not1723, label %.loopexit, label %.lr.ph25

.lr.ph:                                           ; preds = %12, %15
  %18 = phi ptr [ %17, %15 ], [ %14, %12 ]
  %indvars.iv = phi i64 [ %indvars.iv.next, %15 ], [ 0, %12 ]
  call void @llvm.lifetime.start.p0(i64 40, ptr nonnull %4) #6
  call void @OSSL_PARAM_construct_int(ptr dead_on_unwind nonnull writable sret(%struct.ossl_param_st) align 8 %4, ptr noundef nonnull %18, ptr noundef nonnull %1) #6
  call void @llvm.memcpy.p0.p0.i64(ptr noundef nonnull align 16 dereferenceable(40) %2, ptr noundef nonnull align 8 dereferenceable(40) %4, i64 40, i1 false), !tbaa.struct !10
  call void @llvm.lifetime.end.p0(i64 40, ptr nonnull %4) #6
  %19 = call i32 @EVP_KDF_CTX_get_params(ptr noundef %7, ptr noundef nonnull %2) #6
  %20 = call i32 @test_int_le(ptr noundef nonnull @.str.53, i32 noundef 1959, ptr noundef nonnull @.str.182, ptr noundef nonnull @.str.67, i32 noundef %19, i32 noundef 0) #6
  %.not19 = icmp eq i32 %20, 0
  br i1 %.not19, label %.loopexit, label %15

21:                                               ; preds = %.lr.ph25
  %indvars.iv.next31 = add nuw nsw i64 %indvars.iv30, 1
  %22 = getelementptr inbounds nuw %struct.ossl_param_st, ptr %10, i64 %indvars.iv.next31
  %23 = load ptr, ptr %22, align 8, !tbaa !20
  %.not17 = icmp eq ptr %23, null
  br i1 %.not17, label %.loopexit, label %.lr.ph25, !llvm.loop !25

.lr.ph25:                                         ; preds = %.preheader, %21
  %24 = phi ptr [ %23, %21 ], [ %.pre, %.preheader ]
  %indvars.iv30 = phi i64 [ %indvars.iv.next31, %21 ], [ 0, %.preheader ]
  call void @llvm.lifetime.start.p0(i64 40, ptr nonnull %5) #6
  call void @OSSL_PARAM_construct_utf8_string(ptr dead_on_unwind nonnull writable sret(%struct.ossl_param_st) align 8 %5, ptr noundef nonnull %24, ptr noundef nonnull %3, i64 noundef 64) #6
  call void @llvm.memcpy.p0.p0.i64(ptr noundef nonnull align 16 dereferenceable(40) %2, ptr noundef nonnull align 8 dereferenceable(40) %5, i64 40, i1 false), !tbaa.struct !10
  call void @llvm.lifetime.end.p0(i64 40, ptr nonnull %5) #6
  %25 = call i32 @EVP_KDF_CTX_get_params(ptr noundef %7, ptr noundef nonnull %2) #6
  %26 = call i32 @test_int_le(ptr noundef nonnull @.str.53, i32 noundef 1966, ptr noundef nonnull @.str.182, ptr noundef nonnull @.str.67, i32 noundef %25, i32 noundef 0) #6
  %.not18 = icmp eq i32 %26, 0
  br i1 %.not18, label %.loopexit, label %21

.loopexit:                                        ; preds = %.lr.ph, %.lr.ph25, %21, %12, %.preheader, %0, %9
  %.0 = phi i32 [ 0, %9 ], [ 0, %0 ], [ 1, %.preheader ], [ 1, %12 ], [ 0, %.lr.ph25 ], [ 1, %21 ], [ 0, %.lr.ph ]
  call void @EVP_KDF_CTX_free(ptr noundef %7) #6
  call void @llvm.lifetime.end.p0(i64 64, ptr nonnull %3) #6
  call void @llvm.lifetime.end.p0(i64 120, ptr nonnull %2) #6
  call void @llvm.lifetime.end.p0(i64 4, ptr nonnull %1) #6
  ret i32 %.0
}